target datalayout = "e-m:e-p270:32:32-p271:32:32-p272:64:64-i64:64-i128:128-f80:128-n8:16:32:64-S128"
target triple = "x86_64-pc-linux-gnu"

%class.MemReporterBase = type { i64, ptr, %class.StreamAutoIndentor }
%class.StreamAutoIndentor = type <{ ptr, i8, [7 x i8] }>

@.str.13 = private unnamed_addr constant [41 x i8] c"(mmap: reserved=%lu%s, committed=%lu%s, \00", align 1
@.str.14 = private unnamed_addr constant [9 x i8] c"at peak)\00", align 1
@.str.15 = private unnamed_addr constant [12 x i8] c"peak=%lu%s)\00", align 1

; Function Attrs: mustprogress nounwind uwtable
define linkonce_odr hidden noundef i64 @_ZN7NMTUtil15amount_in_scaleEmm(i64 noundef %0, i64 noundef %1) #1 comdat align 2 {
  %3 = alloca i64, align 8
  %4 = alloca i64, align 8
  store i64 %0, ptr %3, align 8
  store i64 %1, ptr %4, align 8
  %5 = load i64, ptr %3, align 8
  %6 = load i64, ptr %4, align 8
  %7 = udiv i64 %6, 2
  %8 = add i64 %5, %7
  %9 = load i64, ptr %4, align 8
  %10 = udiv i64 %8, %9
  ret i64 %10
}

; Function Attrs: mustprogress nounwind uwtable
define linkonce_odr hidden void @_ZN12outputStream9print_rawEPKc(ptr noundef nonnull align 8 dereferenceable(56) %0, ptr noundef %1) #1 comdat align 2 {
  %3 = alloca ptr, align 8
  %4 = alloca ptr, align 8
  store ptr %0, ptr %3, align 8
  store ptr %1, ptr %4, align 8
  %5 = load ptr, ptr %3, align 8
  %6 = load ptr, ptr %4, align 8
  %7 = load ptr, ptr %4, align 8
  %8 = call i64 @strlen(ptr noundef %7) #5
  call void @_ZN12outputStream9print_rawEPKcm(ptr noundef nonnull align 8 dereferenceable(56) %5, ptr noundef %6, i64 noundef %8)
  ret void
}

; Function Attrs: mustprogress nounwind uwtable
define linkonce_odr hidden noundef i64 @_ZNK15MemReporterBase23amount_in_current_scaleEm(ptr noundef nonnull align 8 dereferenceable(32) %0, i64 noundef %1) #1 comdat align 2 {
  %3 = alloca ptr, align 8
  %4 = alloca i64, align 8
  store ptr %0, ptr %3, align 8
  store i64 %1, ptr %4, align 8
  %5 = load ptr, ptr %3, align 8
  %6 = load i64, ptr %4, align 8
  %7 = getelementptr inbounds %class.MemReporterBase, ptr %5, i32 0, i32 0
  %8 = load i64, ptr %7, align 8
  %9 = call noundef i64 @_ZN7NMTUtil15amount_in_scaleEmm(i64 noundef %6, i64 noundef %8)
  ret i64 %9
}

; Function Attrs: mustprogress nounwind uwtable
define linkonce_odr hidden noundef ptr @_ZNK15MemReporterBase13current_scaleEv(ptr noundef nonnull align 8 dereferenceable(32) %0) #1 comdat align 2 {
  %2 = alloca ptr, align 8
  store ptr %0, ptr %2, align 8
  %3 = load ptr, ptr %2, align 8
  %4 = getelementptr inbounds %class.MemReporterBase, ptr %3, i32 0, i32 0
  %5 = load i64, ptr %4, align 8
  %6 = call noundef ptr @_ZN7NMTUtil10scale_nameEm(i64 noundef %5)
  ret ptr %6
}

; Function Attrs: mustprogress nounwind uwtable
define linkonce_odr hidden noundef ptr @_ZNK15MemReporterBase6outputEv(ptr noundef nonnull align 8 dereferenceable(32) %0) #1 comdat align 2 {
  %2 = alloca ptr, align 8
  store ptr %0, ptr %2, align 8
  %3 = load ptr, ptr %2, align 8
  %4 = getelementptr inbounds %class.MemReporterBase, ptr %3, i32 0, i32 1
  %5 = load ptr, ptr %4, align 8
  ret ptr %5
}

; Function Attrs: mustprogress nounwind uwtable
define hidden void @_ZNK15MemReporterBase20print_virtual_memoryEmmm(ptr noundef nonnull align 8 dereferenceable(32) %0, i64 noundef %1, i64 noundef %2, i64 noundef %3) #1 align 2 {
  %5 = alloca ptr, align 8
  %6 = alloca i64, align 8
  %7 = alloca i64, align 8
  %8 = alloca i64, align 8
  %9 = alloca ptr, align 8
  %10 = alloca ptr, align 8
  store ptr %0, ptr %5, align 8
  store i64 %1, ptr %6, align 8
  store i64 %2, ptr %7, align 8
  store i64 %3, ptr %8, align 8
  %11 = load ptr, ptr %5, align 8
  %12 = call noundef ptr @_ZNK15MemReporterBase6outputEv(ptr noundef nonnull align 8 dereferenceable(32) %11)
  store ptr %12, ptr %9, align 8
  %13 = call noundef ptr @_ZNK15MemReporterBase13current_scaleEv(ptr noundef nonnull align 8 dereferenceable(32) %11)
  store ptr %13, ptr %10, align 8
  %14 = load ptr, ptr %9, align 8
  %15 = load i64, ptr %6, align 8
  %16 = call noundef i64 @_ZNK15MemReporterBase23amount_in_current_scaleEm(ptr noundef nonnull align 8 dereferenceable(32) %11, i64 noundef %15)
  %17 = load ptr, ptr %10, align 8
  %18 = load i64, ptr %7, align 8
  %19 = call noundef i64 @_ZNK15MemReporterBase23amount_in_current_scaleEm(ptr noundef nonnull align 8 dereferenceable(32) %11, i64 noundef %18)
  %20 = load ptr, ptr %10, align 8
  call void (ptr, ptr, ...) @_ZN12outputStream5printEPKcz(ptr noundef nonnull align 8 dereferenceable(56) %14, ptr noundef @.str.13, i64 noundef %16, ptr noundef %17, i64 noundef %19, ptr noundef %20)
  %21 = load i64, ptr %8, align 8
  %22 = load i64, ptr %7, align 8
  %23 = icmp eq i64 %21, %22
  br i1 %23, label %24, label %26

24:                                               ; preds = %4
  %25 = load ptr, ptr %9, align 8
  call void @_ZN12outputStream9print_rawEPKc(ptr noundef nonnull align 8 dereferenceable(56) %25, ptr noundef @.str.14)
  br label %31

26:                                               ; preds = %4
  %27 = load ptr, ptr %9, align 8
  %28 = load i64, ptr %8, align 8
  %29 = call noundef i64 @_ZNK15MemReporterBase23amount_in_current_scaleEm(ptr noundef nonnull align 8 dereferenceable(32) %11, i64 noundef %28)
  %30 = load ptr, ptr %10, align 8
  call void (ptr, ptr, ...) @_ZN12outputStream5printEPKcz(ptr noundef nonnull align 8 dereferenceable(56) %27, ptr noundef @.str.15, i64 noundef %29, ptr noundef %30)
  br label %31

31:                                               ; preds = %26, %24
  ret void
}