; Function Attrs: mustprogress nounwind uwtable
define hidden void @_ZNK15MemReporterBase20print_virtual_memoryEmmm(ptr nocapture noundef nonnull readonly align 8 dereferenceable(32) %0, i64 noundef %1, i64 noundef %2, i64 noundef %3) local_unnamed_addr #0 align 2 {
  %5 = getelementptr inbounds i8, ptr %0, i64 8
  %6 = load ptr, ptr %5, align 8
  %7 = load i64, ptr %0, align 8
  %8 = tail call noundef ptr @_ZN7NMTUtil10scale_nameEm(i64 noundef %7) #7
  %9 = load i64, ptr %0, align 8
  %10 = lshr i64 %9, 1
  %11 = add i64 %10, %1
  %12 = udiv i64 %11, %9
  %13 = add i64 %10, %2
  %14 = udiv i64 %13, %9
  tail call void (ptr, ptr, ...) @_ZN12outputStream5printEPKcz(ptr noundef nonnull align 8 dereferenceable(56) %6, ptr noundef nonnull @.str.13, i64 noundef %12, ptr noundef %8, i64 noundef %14, ptr noundef %8) #7
  %15 = icmp eq i64 %3, %2
  br i1 %15, label %16, label %17

16:                                               ; preds = %4
  tail call void @_ZN12outputStream9print_rawEPKcm(ptr noundef nonnull align 8 dereferenceable(56) %6, ptr noundef nonnull @.str.14, i64 noundef 8) #7
  br label %22

17:                                               ; preds = %4
  %18 = load i64, ptr %0, align 8
  %19 = lshr i64 %18, 1
  %20 = add i64 %19, %3
  %21 = udiv i64 %20, %18
  tail call void (ptr, ptr, ...) @_ZN12outputStream5printEPKcz(ptr noundef nonnull align 8 dereferenceable(56) %6, ptr noundef nonnull @.str.15, i64 noundef %21, ptr noundef %8) #7
  br label %22

22:                                               ; preds = %17, %16
  ret void
}